target datalayout = "e-m:e-p270:32:32-p271:32:32-p272:64:64-i64:64-i128:128-f80:128-n8:16:32:64-S128"
target triple = "x86_64-pc-linux-gnu"

%struct._psqlSettings = type { ptr, i32, ptr, i8, ptr, ptr, %struct.printQueryOpt, ptr, ptr, ptr, i8, i8, i32, i32, ptr, ptr, i8, [4 x ptr], i8, i32, ptr, i8, i32, ptr, ptr, i64, i64, i8, ptr, ptr, ptr, i8, i8, i8, i8, i8, i8, i8, i32, i32, i32, i32, i32, i32, i32, i32, ptr, ptr, ptr, i32, i8, i32 }
%struct.printQueryOpt = type { %struct.printTableOpt, ptr, ptr, ptr, i8, ptr, i32 }
%struct.printTableOpt = type { i32, i16, i32, i32, i16, i16, i32, i8, i8, i8, i8, i64, ptr, %struct.separator, %struct.separator, [2 x i8], i8, ptr, i32, i32, i32, i32, i32, i32 }
%struct.separator = type { ptr, i8 }

@pset = external global %struct._psqlSettings, align 8
@.str.60 = private unnamed_addr constant [9 x i8] c"fieldsep\00", align 1

; Function Attrs: nounwind uwtable
define internal void @ignore_slash_options(ptr noundef %0) #0 {
  %2 = alloca ptr, align 8
  %3 = alloca ptr, align 8
  store ptr %0, ptr %2, align 8
  call void @llvm.lifetime.start.p0(i64 8, ptr %3) #10
  br label %4

4:                                                ; preds = %8, %1
  %5 = load ptr, ptr %2, align 8
  %6 = call ptr @psql_scan_slash_option(ptr noundef %5, i32 noundef 0, ptr noundef null, i1 noundef zeroext false)
  store ptr %6, ptr %3, align 8
  %7 = icmp ne ptr %6, null
  br i1 %7, label %8, label %10

8:                                                ; preds = %4
  %9 = load ptr, ptr %3, align 8
  call void @free(ptr noundef %9) #10
  br label %4, !llvm.loop !18

10:                                               ; preds = %4
  call void @llvm.lifetime.end.p0(i64 8, ptr %3) #10
  ret void
}

; Function Attrs: nounwind uwtable
define internal i32 @exec_command_f(ptr noundef %0, i1 noundef zeroext %1) #0 {
  %3 = alloca ptr, align 8
  %4 = alloca i8, align 1
  %5 = alloca i8, align 1
  %6 = alloca ptr, align 8
  store ptr %0, ptr %3, align 8
  %7 = zext i1 %1 to i8
  store i8 %7, ptr %4, align 1
  call void @llvm.lifetime.start.p0(i64 1, ptr %5) #10
  store i8 1, ptr %5, align 1
  %8 = load i8, ptr %4, align 1, !range !4, !noundef !5
  %9 = trunc i8 %8 to i1
  br i1 %9, label %10, label %19

10:                                               ; preds = %2
  call void @llvm.lifetime.start.p0(i64 8, ptr %6) #10
  %11 = load ptr, ptr %3, align 8
  %12 = call ptr @psql_scan_slash_option(ptr noundef %11, i32 noundef 0, ptr noundef null, i1 noundef zeroext false)
  store ptr %12, ptr %6, align 8
  %13 = load ptr, ptr %6, align 8
  %14 = load i8, ptr getelementptr inbounds nuw (%struct._psqlSettings, ptr @pset, i32 0, i32 33), align 2, !range !4, !noundef !5
  %15 = trunc i8 %14 to i1
  %16 = call zeroext i1 @do_pset(ptr noundef @.str.60, ptr noundef %13, ptr noundef getelementptr inbounds nuw (%struct._psqlSettings, ptr @pset, i32 0, i32 6), i1 noundef zeroext %15)
  %17 = zext i1 %16 to i8
  store i8 %17, ptr %5, align 1
  %18 = load ptr, ptr %6, align 8
  call void @free(ptr noundef %18) #10
  call void @llvm.lifetime.end.p0(i64 8, ptr %6) #10
  br label %21

19:                                               ; preds = %2
  %20 = load ptr, ptr %3, align 8
  call void @ignore_slash_options(ptr noundef %20)
  br label %21

21:                                               ; preds = %19, %10
  %22 = load i8, ptr %5, align 1, !range !4, !noundef !5
  %23 = trunc i8 %22 to i1
  %24 = select i1 %23, i32 2, i32 5
  call void @llvm.lifetime.end.p0(i64 1, ptr %5) #10
  ret i32 %24
}