; Function Attrs: nounwind uwtable
define internal fastcc range(i32 2, 6) i32 @exec_command_f(ptr noundef %0, i1 noundef zeroext %1) unnamed_addr #0 {
  %3 = tail call ptr @psql_scan_slash_option(ptr noundef %0, i32 noundef 0, ptr noundef null, i1 noundef zeroext false) #16
  br i1 %1, label %4, label %9

4:                                                ; preds = %2
  %5 = load i8, ptr getelementptr inbounds nuw (i8, ptr @pset, i64 402), align 2, !range !4, !noundef !5
  %6 = trunc nuw i8 %5 to i1
  %7 = tail call zeroext i1 @do_pset(ptr noundef nonnull @.str.60, ptr noundef %3, ptr noundef nonnull getelementptr inbounds nuw (i8, ptr @pset, i64 48), i1 noundef zeroext %6)
  tail call void @free(ptr noundef %3) #16
  %8 = select i1 %7, i32 2, i32 5
  br label %ignore_slash_options.exit

9:                                                ; preds = %2
  %.not2.i = icmp eq ptr %3, null
  br i1 %.not2.i, label %ignore_slash_options.exit, label %.lr.ph.i

.lr.ph.i:                                         ; preds = %9, %.lr.ph.i
  %10 = phi ptr [ %11, %.lr.ph.i ], [ %3, %9 ]
  tail call void @free(ptr noundef nonnull %10) #16
  %11 = tail call ptr @psql_scan_slash_option(ptr noundef %0, i32 noundef 0, ptr noundef null, i1 noundef zeroext false) #16
  %.not.i = icmp eq ptr %11, null
  br i1 %.not.i, label %ignore_slash_options.exit, label %.lr.ph.i, !llvm.loop !10

ignore_slash_options.exit:                        ; preds = %.lr.ph.i, %9, %4
  %.0 = phi i32 [ %8, %4 ], [ 2, %9 ], [ 2, %.lr.ph.i ]
  ret i32 %.0
}